target datalayout = "e-m:e-p270:32:32-p271:32:32-p272:64:64-i64:64-i128:128-f80:128-n8:16:32:64-S128"
target triple = "x86_64-pc-linux-gnu"

%struct.reassembly_table = type { ptr, ptr, ptr, ptr, ptr }
%struct.reassembly_table_functions = type { ptr, ptr, ptr, ptr, ptr, ptr }

@proto_register_m2m.ett = internal global [5 x ptr] [ptr @ett_m2m, ptr @ett_m2m_tlv, ptr @ett_m2m_fch, ptr @ett_m2m_cdma, ptr @ett_m2m_ffb], align 16
@.str.32 = private unnamed_addr constant [24 x i8] c"WiMax Mac to Mac Packet\00", align 1
@.str.33 = private unnamed_addr constant [11 x i8] c"M2M  (m2m)\00", align 1
@.str.34 = private unnamed_addr constant [4 x i8] c"m2m\00", align 1
@proto_m2m = internal global i32 0, align 4
@.str.35 = private unnamed_addr constant [25 x i8] c"mac_mgmt_msg_m2m_handler\00", align 1
@m2m_handle = internal global ptr null, align 8
@pdu_reassembly_table = internal global %struct.reassembly_table zeroinitializer, align 8
@addresses_reassembly_table_functions = external constant %struct.reassembly_table_functions, align 8

; Function Attrs: null_pointer_is_valid sspstrong uwtable
define hidden void @proto_register_m2m() #0 {
  %1 = alloca ptr, align 8
  call void @llvm.lifetime.start.p0(i64 8, ptr %1) #3
  %2 = call i32 @proto_register_protocol(ptr noundef @.str.32, ptr noundef @.str.33, ptr noundef @.str.34)
  store i32 %2, ptr @proto_m2m, align 4
  %3 = load i32, ptr @proto_m2m, align 4
  call void @proto_register_field_array(i32 noundef %3, ptr noundef @proto_register_m2m.hf, i32 noundef 3)
  %4 = load i32, ptr @proto_m2m, align 4
  call void @proto_register_field_array(i32 noundef %4, ptr noundef @proto_register_m2m.hf_tlv, i32 noundef 18)
  call void @proto_register_subtree_array(ptr noundef @proto_register_m2m.ett, i32 noundef 5)
  %5 = load i32, ptr @proto_m2m, align 4
  %6 = call ptr @expert_register_protocol(i32 noundef %5)
  store ptr %6, ptr %1, align 8
  %7 = load ptr, ptr %1, align 8
  call void @expert_register_field_array(ptr noundef %7, ptr noundef @proto_register_m2m.ei, i32 noundef 1)
  %8 = load i32, ptr @proto_m2m, align 4
  %9 = call ptr @register_dissector(ptr noundef @.str.35, ptr noundef @dissect_m2m, i32 noundef %8)
  store ptr %9, ptr @m2m_handle, align 8
  call void @reassembly_table_register(ptr noundef @pdu_reassembly_table, ptr noundef @addresses_reassembly_table_functions)
  call void @llvm.lifetime.end.p0(i64 8, ptr %1) #3
  ret void
}