; Function Attrs: null_pointer_is_valid sspstrong uwtable
define hidden void @proto_register_m2m() local_unnamed_addr #0 {
  %1 = tail call i32 @proto_register_protocol(ptr noundef nonnull @.str.32, ptr noundef nonnull @.str.33, ptr noundef nonnull @.str.34)
  store i32 %1, ptr @proto_m2m, align 4
  tail call void @proto_register_field_array(i32 noundef %1, ptr noundef nonnull @proto_register_m2m.hf, i32 noundef 3)
  %2 = load i32, ptr @proto_m2m, align 4
  tail call void @proto_register_field_array(i32 noundef %2, ptr noundef nonnull @proto_register_m2m.hf_tlv, i32 noundef 18)
  tail call void @proto_register_subtree_array(ptr noundef nonnull @proto_register_m2m.ett, i32 noundef 5)
  %3 = load i32, ptr @proto_m2m, align 4
  %4 = tail call ptr @expert_register_protocol(i32 noundef %3)
  tail call void @expert_register_field_array(ptr noundef %4, ptr noundef nonnull @proto_register_m2m.ei, i32 noundef 1)
  %5 = load i32, ptr @proto_m2m, align 4
  %6 = tail call ptr @register_dissector(ptr noundef nonnull @.str.35, ptr noundef nonnull @dissect_m2m, i32 noundef %5)
  store ptr %6, ptr @m2m_handle, align 8
  tail call void @reassembly_table_register(ptr noundef nonnull @pdu_reassembly_table, ptr noundef nonnull @addresses_reassembly_table_functions)
  ret void
}